; Function Attrs: nounwind sspstrong uwtable
define dso_local void @qemu_input_update_buttons(ptr noundef %src, ptr noundef readonly captures(none) %button_map, i32 noundef %button_old, i32 noundef %button_new) local_unnamed_addr #0 {
entry:
  %bevt.i = alloca %struct.InputBtnEvent, align 4
  %evt.i = alloca %struct.InputEvent, align 8
  %down1.i = getelementptr inbounds nuw i8, ptr %bevt.i, i64 4
  %u.i = getelementptr inbounds nuw i8, ptr %evt.i, i64 8
  br label %for.body

for.body:                                         ; preds = %entry, %for.inc
  %indvars.iv = phi i64 [ 0, %entry ], [ %indvars.iv.next, %for.inc ]
  %arrayidx = getelementptr i32, ptr %button_map, i64 %indvars.iv
  %0 = load i32, ptr %arrayidx, align 4
  %and = and i32 %0, %button_old
  %and1 = and i32 %0, %button_new
  %cmp2 = icmp eq i32 %and, %and1
  br i1 %cmp2, label %for.inc, label %if.end

if.end:                                           ; preds = %for.body
  %tobool = icmp ne i32 %and1, 0
  call void @llvm.lifetime.start.p0(i64 8, ptr nonnull %bevt.i)
  call void @llvm.lifetime.start.p0(i64 16, ptr nonnull %evt.i)
  %frombool.i = zext i1 %tobool to i8
  %1 = trunc nuw nsw i64 %indvars.iv to i32
  store i32 %1, ptr %bevt.i, align 4
  store i8 %frombool.i, ptr %down1.i, align 4
  store i32 1, ptr %evt.i, align 8
  store ptr %bevt.i, ptr %u.i, align 8
  %call.i.i = call zeroext i1 @runstate_is_running() #12
  br i1 %call.i.i, label %if.end22.i.i, label %land.lhs.true19.i.i

land.lhs.true19.i.i:                              ; preds = %if.end
  %call20.i.i = call zeroext i1 @runstate_check(i32 noundef 12) #12
  br i1 %call20.i.i, label %if.end22.i.i, label %qemu_input_queue_btn.exit

if.end22.i.i:                                     ; preds = %land.lhs.true19.i.i, %if.end
  call void @replay_input_event(ptr noundef %src, ptr noundef nonnull %evt.i) #12
  br label %qemu_input_queue_btn.exit

qemu_input_queue_btn.exit:                        ; preds = %land.lhs.true19.i.i, %if.end22.i.i
  call void @llvm.lifetime.end.p0(i64 8, ptr nonnull %bevt.i)
  call void @llvm.lifetime.end.p0(i64 16, ptr nonnull %evt.i)
  br label %for.inc

for.inc:                                          ; preds = %for.body, %qemu_input_queue_btn.exit
  %indvars.iv.next = add nuw nsw i64 %indvars.iv, 1
  %exitcond.not = icmp eq i64 %indvars.iv.next, 10
  br i1 %exitcond.not, label %for.end, label %for.body, !llvm.loop !12

for.end:                                          ; preds = %for.inc
  ret void
}